target datalayout = "e-m:e-p270:32:32-p271:32:32-p272:64:64-i64:64-f80:128-n8:16:32:64-S128"
target triple = "x86_64-pc-linux-gnu"

%struct._IO_FILE = type { i32, i8*, i8*, i8*, i8*, i8*, i8*, i8*, i8*, i8*, i8*, i8*, %struct._IO_marker*, %struct._IO_FILE*, i32, i32, i64, i16, i8, [1 x i8], i8*, i64, %struct._IO_codecvt*, %struct._IO_wide_data*, %struct._IO_FILE*, i8*, i64, i32, [20 x i8] }
%struct._IO_marker = type opaque
%struct._IO_codecvt = type opaque
%struct._IO_wide_data = type opaque

@dis = common dso_local global [45 x float] zeroinitializer, align 16
@com = common dso_local global [45 x [2 x i32]] zeroinitializer, align 16
@.str = private unnamed_addr constant [3 x i8] c"%d\00", align 1
@.str.1 = private unnamed_addr constant [10 x i8] c"%d %d %d \00", align 1
@.str.2 = private unnamed_addr constant [28 x i8] c"(%d,%d,%d)-(%d,%d,%d)=%.2f\0A\00", align 1
@stdin = external dso_local global %struct._IO_FILE*, align 8

; Function Attrs: noinline nounwind uwtable
define dso_local void @swap(i32 %0, i32 %1) #0 {
  %3 = alloca i32, align 4
  %4 = alloca i32, align 4
  %5 = alloca [2 x i32], align 4
  %6 = alloca float, align 4
  store i32 %0, i32* %3, align 4
  store i32 %1, i32* %4, align 4
  %7 = load i32, i32* %3, align 4
  %8 = sext i32 %7 to i64
  %9 = getelementptr inbounds [45 x float], [45 x float]* @dis, i64 0, i64 %8
  %10 = load float, float* %9, align 4
  store float %10, float* %6, align 4
  %11 = load i32, i32* %4, align 4
  %12 = sext i32 %11 to i64
  %13 = getelementptr inbounds [45 x float], [45 x float]* @dis, i64 0, i64 %12
  %14 = load float, float* %13, align 4
  %15 = load i32, i32* %3, align 4
  %16 = sext i32 %15 to i64
  %17 = getelementptr inbounds [45 x float], [45 x float]* @dis, i64 0, i64 %16
  store float %14, float* %17, align 4
  %18 = load float, float* %6, align 4
  %19 = load i32, i32* %4, align 4
  %20 = sext i32 %19 to i64
  %21 = getelementptr inbounds [45 x float], [45 x float]* @dis, i64 0, i64 %20
  store float %18, float* %21, align 4
  %22 = load i32, i32* %3, align 4
  %23 = sext i32 %22 to i64
  %24 = getelementptr inbounds [45 x [2 x i32]], [45 x [2 x i32]]* @com, i64 0, i64 %23
  %25 = getelementptr inbounds [2 x i32], [2 x i32]* %24, i64 0, i64 0
  %26 = load i32, i32* %25, align 8
  %27 = getelementptr inbounds [2 x i32], [2 x i32]* %5, i64 0, i64 0
  store i32 %26, i32* %27, align 4
  %28 = load i32, i32* %4, align 4
  %29 = sext i32 %28 to i64
  %30 = getelementptr inbounds [45 x [2 x i32]], [45 x [2 x i32]]* @com, i64 0, i64 %29
  %31 = getelementptr inbounds [2 x i32], [2 x i32]* %30, i64 0, i64 0
  %32 = load i32, i32* %31, align 8
  %33 = load i32, i32* %3, align 4
  %34 = sext i32 %33 to i64
  %35 = getelementptr inbounds [45 x [2 x i32]], [45 x [2 x i32]]* @com, i64 0, i64 %34
  %36 = getelementptr inbounds [2 x i32], [2 x i32]* %35, i64 0, i64 0
  store i32 %32, i32* %36, align 8
  %37 = getelementptr inbounds [2 x i32], [2 x i32]* %5, i64 0, i64 0
  %38 = load i32, i32* %37, align 4
  %39 = load i32, i32* %4, align 4
  %40 = sext i32 %39 to i64
  %41 = getelementptr inbounds [45 x [2 x i32]], [45 x [2 x i32]]* @com, i64 0, i64 %40
  %42 = getelementptr inbounds [2 x i32], [2 x i32]* %41, i64 0, i64 0
  store i32 %38, i32* %42, align 8
  %43 = load i32, i32* %3, align 4
  %44 = sext i32 %43 to i64
  %45 = getelementptr inbounds [45 x [2 x i32]], [45 x [2 x i32]]* @com, i64 0, i64 %44
  %46 = getelementptr inbounds [2 x i32], [2 x i32]* %45, i64 0, i64 1
  %47 = load i32, i32* %46, align 4
  %48 = getelementptr inbounds [2 x i32], [2 x i32]* %5, i64 0, i64 1
  store i32 %47, i32* %48, align 4
  %49 = load i32, i32* %4, align 4
  %50 = sext i32 %49 to i64
  %51 = getelementptr inbounds [45 x [2 x i32]], [45 x [2 x i32]]* @com, i64 0, i64 %50
  %52 = getelementptr inbounds [2 x i32], [2 x i32]* %51, i64 0, i64 1
  %53 = load i32, i32* %52, align 4
  %54 = load i32, i32* %3, align 4
  %55 = sext i32 %54 to i64
  %56 = getelementptr inbounds [45 x [2 x i32]], [45 x [2 x i32]]* @com, i64 0, i64 %55
  %57 = getelementptr inbounds [2 x i32], [2 x i32]* %56, i64 0, i64 1
  store i32 %53, i32* %57, align 4
  %58 = getelementptr inbounds [2 x i32], [2 x i32]* %5, i64 0, i64 1
  %59 = load i32, i32* %58, align 4
  %60 = load i32, i32* %4, align 4
  %61 = sext i32 %60 to i64
  %62 = getelementptr inbounds [45 x [2 x i32]], [45 x [2 x i32]]* @com, i64 0, i64 %61
  %63 = getelementptr inbounds [2 x i32], [2 x i32]* %62, i64 0, i64 1
  store i32 %59, i32* %63, align 4
  ret void
}

; Function Attrs: noinline nounwind uwtable
define dso_local i32 @main() #0 {
  %1 = alloca i32, align 4
  %2 = alloca i32, align 4
  %3 = alloca i32, align 4
  %4 = alloca i32, align 4
  %5 = alloca i32, align 4
  %6 = alloca [10 x [3 x i32]], align 16
  store i32 0, i32* %1, align 4
  store i32 0, i32* %5, align 4
  %7 = call i32 (i8*, ...) @__isoc99_scanf(i8* getelementptr inbounds ([3 x i8], [3 x i8]* @.str, i64 0, i64 0), i32* %4)
  store i32 0, i32* %2, align 4
  br label %8

8:                                                ; preds = %26, %0
  %9 = load i32, i32* %2, align 4
  %10 = load i32, i32* %4, align 4
  %11 = icmp slt i32 %9, %10
  br i1 %11, label %12, label %29

12:                                               ; preds = %8
  %13 = load i32, i32* %2, align 4
  %14 = sext i32 %13 to i64
  %15 = getelementptr inbounds [10 x [3 x i32]], [10 x [3 x i32]]* %6, i64 0, i64 %14
  %16 = getelementptr inbounds [3 x i32], [3 x i32]* %15, i64 0, i64 0
  %17 = load i32, i32* %2, align 4
  %18 = sext i32 %17 to i64
  %19 = getelementptr inbounds [10 x [3 x i32]], [10 x [3 x i32]]* %6, i64 0, i64 %18
  %20 = getelementptr inbounds [3 x i32], [3 x i32]* %19, i64 0, i64 1
  %21 = load i32, i32* %2, align 4
  %22 = sext i32 %21 to i64
  %23 = getelementptr inbounds [10 x [3 x i32]], [10 x [3 x i32]]* %6, i64 0, i64 %22
  %24 = getelementptr inbounds [3 x i32], [3 x i32]* %23, i64 0, i64 2
  %25 = call i32 (i8*, ...) @__isoc99_scanf(i8* getelementptr inbounds ([10 x i8], [10 x i8]* @.str.1, i64 0, i64 0), i32* %16, i32* %20, i32* %24)
  br label %26

26:                                               ; preds = %12
  %27 = load i32, i32* %2, align 4
  %28 = add nsw i32 %27, 1
  store i32 %28, i32* %2, align 4
  br label %8

29:                                               ; preds = %8
  store i32 0, i32* %2, align 4
  br label %30

30:                                               ; preds = %104, %29
  %31 = load i32, i32* %2, align 4
  %32 = load i32, i32* %4, align 4
  %33 = icmp slt i32 %31, %32
  br i1 %33, label %34, label %107

34:                                               ; preds = %30
  %35 = load i32, i32* %2, align 4
  %36 = add nsw i32 %35, 1
  store i32 %36, i32* %3, align 4
  br label %37

37:                                               ; preds = %100, %34
  %38 = load i32, i32* %3, align 4
  %39 = load i32, i32* %4, align 4
  %40 = icmp slt i32 %38, %39
  br i1 %40, label %41, label %103

41:                                               ; preds = %37
  %42 = load i32, i32* %2, align 4
  %43 = load i32, i32* %5, align 4
  %44 = sext i32 %43 to i64
  %45 = getelementptr inbounds [45 x [2 x i32]], [45 x [2 x i32]]* @com, i64 0, i64 %44
  %46 = getelementptr inbounds [2 x i32], [2 x i32]* %45, i64 0, i64 0
  store i32 %42, i32* %46, align 8
  %47 = load i32, i32* %3, align 4
  %48 = load i32, i32* %5, align 4
  %49 = sext i32 %48 to i64
  %50 = getelementptr inbounds [45 x [2 x i32]], [45 x [2 x i32]]* @com, i64 0, i64 %49
  %51 = getelementptr inbounds [2 x i32], [2 x i32]* %50, i64 0, i64 1
  store i32 %47, i32* %51, align 4
  %52 = load i32, i32* %2, align 4
  %53 = sext i32 %52 to i64
  %54 = getelementptr inbounds [10 x [3 x i32]], [10 x [3 x i32]]* %6, i64 0, i64 %53
  %55 = getelementptr inbounds [3 x i32], [3 x i32]* %54, i64 0, i64 0
  %56 = load i32, i32* %55, align 4
  %57 = load i32, i32* %3, align 4
  %58 = sext i32 %57 to i64
  %59 = getelementptr inbounds [10 x [3 x i32]], [10 x [3 x i32]]* %6, i64 0, i64 %58
  %60 = getelementptr inbounds [3 x i32], [3 x i32]* %59, i64 0, i64 0
  %61 = load i32, i32* %60, align 4
  %62 = sub nsw i32 %56, %61
  %63 = sitofp i32 %62 to double
  %64 = call double @pow(double %63, double 2.000000e+00) #3
  %65 = load i32, i32* %2, align 4
  %66 = sext i32 %65 to i64
  %67 = getelementptr inbounds [10 x [3 x i32]], [10 x [3 x i32]]* %6, i64 0, i64 %66
  %68 = getelementptr inbounds [3 x i32], [3 x i32]* %67, i64 0, i64 1
  %69 = load i32, i32* %68, align 4
  %70 = load i32, i32* %3, align 4
  %71 = sext i32 %70 to i64
  %72 = getelementptr inbounds [10 x [3 x i32]], [10 x [3 x i32]]* %6, i64 0, i64 %71
  %73 = getelementptr inbounds [3 x i32], [3 x i32]* %72, i64 0, i64 1
  %74 = load i32, i32* %73, align 4
  %75 = sub nsw i32 %69, %74
  %76 = sitofp i32 %75 to double
  %77 = call double @pow(double %76, double 2.000000e+00) #3
  %78 = fadd double %64, %77
  %79 = load i32, i32* %2, align 4
  %80 = sext i32 %79 to i64
  %81 = getelementptr inbounds [10 x [3 x i32]], [10 x [3 x i32]]* %6, i64 0, i64 %80
  %82 = getelementptr inbounds [3 x i32], [3 x i32]* %81, i64 0, i64 2
  %83 = load i32, i32* %82, align 4
  %84 = load i32, i32* %3, align 4
  %85 = sext i32 %84 to i64
  %86 = getelementptr inbounds [10 x [3 x i32]], [10 x [3 x i32]]* %6, i64 0, i64 %85
  %87 = getelementptr inbounds [3 x i32], [3 x i32]* %86, i64 0, i64 2
  %88 = load i32, i32* %87, align 4
  %89 = sub nsw i32 %83, %88
  %90 = sitofp i32 %89 to double
  %91 = call double @pow(double %90, double 2.000000e+00) #3
  %92 = fadd double %78, %91
  %93 = call double @sqrt(double %92) #3
  %94 = fptrunc double %93 to float
  %95 = load i32, i32* %5, align 4
  %96 = sext i32 %95 to i64
  %97 = getelementptr inbounds [45 x float], [45 x float]* @dis, i64 0, i64 %96
  store float %94, float* %97, align 4
  %98 = load i32, i32* %5, align 4
  %99 = add nsw i32 %98, 1
  store i32 %99, i32* %5, align 4
  br label %100

100:                                              ; preds = %41
  %101 = load i32, i32* %3, align 4
  %102 = add nsw i32 %101, 1
  store i32 %102, i32* %3, align 4
  br label %37

103:                                              ; preds = %37
  br label %104

104:                                              ; preds = %103
  %105 = load i32, i32* %2, align 4
  %106 = add nsw i32 %105, 1
  store i32 %106, i32* %2, align 4
  br label %30

107:                                              ; preds = %30
  %108 = load i32, i32* %5, align 4
  store i32 %108, i32* %2, align 4
  br label %109

109:                                              ; preds = %138, %107
  %110 = load i32, i32* %2, align 4
  %111 = icmp sgt i32 %110, 0
  br i1 %111, label %112, label %141

112:                                              ; preds = %109
  store i32 0, i32* %3, align 4
  br label %113

113:                                              ; preds = %134, %112
  %114 = load i32, i32* %3, align 4
  %115 = load i32, i32* %2, align 4
  %116 = sub nsw i32 %115, 1
  %117 = icmp slt i32 %114, %116
  br i1 %117, label %118, label %137

118:                                              ; preds = %113
  %119 = load i32, i32* %3, align 4
  %120 = sext i32 %119 to i64
  %121 = getelementptr inbounds [45 x float], [45 x float]* @dis, i64 0, i64 %120
  %122 = load float, float* %121, align 4
  %123 = load i32, i32* %3, align 4
  %124 = add nsw i32 %123, 1
  %125 = sext i32 %124 to i64
  %126 = getelementptr inbounds [45 x float], [45 x float]* @dis, i64 0, i64 %125
  %127 = load float, float* %126, align 4
  %128 = fcmp olt float %122, %127
  br i1 %128, label %129, label %133

129:                                              ; preds = %118
  %130 = load i32, i32* %3, align 4
  %131 = load i32, i32* %3, align 4
  %132 = add nsw i32 %131, 1
  call void @swap(i32 %130, i32 %132)
  br label %133

133:                                              ; preds = %129, %118
  br label %134

134:                                              ; preds = %133
  %135 = load i32, i32* %3, align 4
  %136 = add nsw i32 %135, 1
  store i32 %136, i32* %3, align 4
  br label %113

137:                                              ; preds = %113
  br label %138

138:                                              ; preds = %137
  %139 = load i32, i32* %2, align 4
  %140 = add nsw i32 %139, -1
  store i32 %140, i32* %2, align 4
  br label %109

141:                                              ; preds = %109
  store i32 0, i32* %2, align 4
  br label %142

142:                                              ; preds = %207, %141
  %143 = load i32, i32* %2, align 4
  %144 = load i32, i32* %5, align 4
  %145 = icmp slt i32 %143, %144
  br i1 %145, label %146, label %210

146:                                              ; preds = %142
  %147 = load i32, i32* %2, align 4
  %148 = sext i32 %147 to i64
  %149 = getelementptr inbounds [45 x [2 x i32]], [45 x [2 x i32]]* @com, i64 0, i64 %148
  %150 = getelementptr inbounds [2 x i32], [2 x i32]* %149, i64 0, i64 0
  %151 = load i32, i32* %150, align 8
  %152 = zext i32 %151 to i64
  %153 = getelementptr inbounds [10 x [3 x i32]], [10 x [3 x i32]]* %6, i64 0, i64 %152
  %154 = getelementptr inbounds [3 x i32], [3 x i32]* %153, i64 0, i64 0
  %155 = load i32, i32* %154, align 4
  %156 = load i32, i32* %2, align 4
  %157 = sext i32 %156 to i64
  %158 = getelementptr inbounds [45 x [2 x i32]], [45 x [2 x i32]]* @com, i64 0, i64 %157
  %159 = getelementptr inbounds [2 x i32], [2 x i32]* %158, i64 0, i64 0
  %160 = load i32, i32* %159, align 8
  %161 = zext i32 %160 to i64
  %162 = getelementptr inbounds [10 x [3 x i32]], [10 x [3 x i32]]* %6, i64 0, i64 %161
  %163 = getelementptr inbounds [3 x i32], [3 x i32]* %162, i64 0, i64 1
  %164 = load i32, i32* %163, align 4
  %165 = load i32, i32* %2, align 4
  %166 = sext i32 %165 to i64
  %167 = getelementptr inbounds [45 x [2 x i32]], [45 x [2 x i32]]* @com, i64 0, i64 %166
  %168 = getelementptr inbounds [2 x i32], [2 x i32]* %167, i64 0, i64 0
  %169 = load i32, i32* %168, align 8
  %170 = zext i32 %169 to i64
  %171 = getelementptr inbounds [10 x [3 x i32]], [10 x [3 x i32]]* %6, i64 0, i64 %170
  %172 = getelementptr inbounds [3 x i32], [3 x i32]* %171, i64 0, i64 2
  %173 = load i32, i32* %172, align 4
  %174 = load i32, i32* %2, align 4
  %175 = sext i32 %174 to i64
  %176 = getelementptr inbounds [45 x [2 x i32]], [45 x [2 x i32]]* @com, i64 0, i64 %175
  %177 = getelementptr inbounds [2 x i32], [2 x i32]* %176, i64 0, i64 1
  %178 = load i32, i32* %177, align 4
  %179 = zext i32 %178 to i64
  %180 = getelementptr inbounds [10 x [3 x i32]], [10 x [3 x i32]]* %6, i64 0, i64 %179
  %181 = getelementptr inbounds [3 x i32], [3 x i32]* %180, i64 0, i64 0
  %182 = load i32, i32* %181, align 4
  %183 = load i32, i32* %2, align 4
  %184 = sext i32 %183 to i64
  %185 = getelementptr inbounds [45 x [2 x i32]], [45 x [2 x i32]]* @com, i64 0, i64 %184
  %186 = getelementptr inbounds [2 x i32], [2 x i32]* %185, i64 0, i64 1
  %187 = load i32, i32* %186, align 4
  %188 = zext i32 %187 to i64
  %189 = getelementptr inbounds [10 x [3 x i32]], [10 x [3 x i32]]* %6, i64 0, i64 %188
  %190 = getelementptr inbounds [3 x i32], [3 x i32]* %189, i64 0, i64 1
  %191 = load i32, i32* %190, align 4
  %192 = load i32, i32* %2, align 4
  %193 = sext i32 %192 to i64
  %194 = getelementptr inbounds [45 x [2 x i32]], [45 x [2 x i32]]* @com, i64 0, i64 %193
  %195 = getelementptr inbounds [2 x i32], [2 x i32]* %194, i64 0, i64 1
  %196 = load i32, i32* %195, align 4
  %197 = zext i32 %196 to i64
  %198 = getelementptr inbounds [10 x [3 x i32]], [10 x [3 x i32]]* %6, i64 0, i64 %197
  %199 = getelementptr inbounds [3 x i32], [3 x i32]* %198, i64 0, i64 2
  %200 = load i32, i32* %199, align 4
  %201 = load i32, i32* %2, align 4
  %202 = sext i32 %201 to i64
  %203 = getelementptr inbounds [45 x float], [45 x float]* @dis, i64 0, i64 %202
  %204 = load float, float* %203, align 4
  %205 = fpext float %204 to double
  %206 = call i32 (i8*, ...) @printf(i8* getelementptr inbounds ([28 x i8], [28 x i8]* @.str.2, i64 0, i64 0), i32 %155, i32 %164, i32 %173, i32 %182, i32 %191, i32 %200, double %205)
  br label %207

207:                                              ; preds = %146
  %208 = load i32, i32* %2, align 4
  %209 = add nsw i32 %208, 1
  store i32 %209, i32* %2, align 4
  br label %142

210:                                              ; preds = %142
  %211 = load %struct._IO_FILE*, %struct._IO_FILE** @stdin, align 8
  %212 = call i32 @fclose(%struct._IO_FILE* %211)
  ret i32 0
}